
rv64ui-p-sllw:     file format elf64-littleriscv


Disassembly of section .text.init:

0000000000010000 <_start>:
   10000:	0500006f          	j	10050 <reset_vector>

0000000000010004 <trap_vector>:
   10004:	34202f73          	csrr	t5,mcause
   10008:	00800f93          	li	t6,8
   1000c:	03ff0863          	beq	t5,t6,1003c <write_tohost>
   10010:	00900f93          	li	t6,9
   10014:	03ff0463          	beq	t5,t6,1003c <write_tohost>
   10018:	00b00f93          	li	t6,11
   1001c:	03ff0063          	beq	t5,t6,1003c <write_tohost>
   10020:	00000f13          	li	t5,0
   10024:	000f0463          	beqz	t5,1002c <trap_vector+0x28>
   10028:	000f0067          	jr	t5
   1002c:	34202f73          	csrr	t5,mcause
   10030:	000f5463          	bgez	t5,10038 <handle_exception>
   10034:	0040006f          	j	10038 <handle_exception>

0000000000010038 <handle_exception>:
   10038:	5391e193          	or	gp,gp,1337

000000000001003c <write_tohost>:
   1003c:	00001f17          	auipc	t5,0x1
   10040:	fc3f2223          	sw	gp,-60(t5) # 11000 <tohost>
   10044:	00001f17          	auipc	t5,0x1
   10048:	fc0f2023          	sw	zero,-64(t5) # 11004 <tohost+0x4>
   1004c:	ff1ff06f          	j	1003c <write_tohost>

0000000000010050 <reset_vector>:
   10050:	00000093          	li	ra,0
   10054:	00000113          	li	sp,0
   10058:	00000193          	li	gp,0
   1005c:	00000213          	li	tp,0
   10060:	00000293          	li	t0,0
   10064:	00000313          	li	t1,0
   10068:	00000393          	li	t2,0
   1006c:	00000413          	li	s0,0
   10070:	00000493          	li	s1,0
   10074:	00000513          	li	a0,0
   10078:	00000593          	li	a1,0
   1007c:	00000613          	li	a2,0
   10080:	00000693          	li	a3,0
   10084:	00000713          	li	a4,0
   10088:	00000793          	li	a5,0
   1008c:	00000813          	li	a6,0
   10090:	00000893          	li	a7,0
   10094:	00000913          	li	s2,0
   10098:	00000993          	li	s3,0
   1009c:	00000a13          	li	s4,0
   100a0:	00000a93          	li	s5,0
   100a4:	00000b13          	li	s6,0
   100a8:	00000b93          	li	s7,0
   100ac:	00000c13          	li	s8,0
   100b0:	00000c93          	li	s9,0
   100b4:	00000d13          	li	s10,0
   100b8:	00000d93          	li	s11,0
   100bc:	00000e13          	li	t3,0
   100c0:	00000e93          	li	t4,0
   100c4:	00000f13          	li	t5,0
   100c8:	00000f93          	li	t6,0
   100cc:	f1402573          	csrr	a0,mhartid
   100d0:	00051063          	bnez	a0,100d0 <reset_vector+0x80>
   100d4:	00000297          	auipc	t0,0x0
   100d8:	01028293          	add	t0,t0,16 # 100e4 <reset_vector+0x94>
   100dc:	30529073          	csrw	mtvec,t0
   100e0:	74445073          	csrw	0x744,8
   100e4:	00000297          	auipc	t0,0x0
   100e8:	01028293          	add	t0,t0,16 # 100f4 <reset_vector+0xa4>
   100ec:	30529073          	csrw	mtvec,t0
   100f0:	18005073          	csrw	satp,0
   100f4:	00000297          	auipc	t0,0x0
   100f8:	02428293          	add	t0,t0,36 # 10118 <reset_vector+0xc8>
   100fc:	30529073          	csrw	mtvec,t0
   10100:	0010029b          	addw	t0,zero,1
   10104:	03529293          	sll	t0,t0,0x35
   10108:	fff28293          	add	t0,t0,-1
   1010c:	3b029073          	csrw	pmpaddr0,t0
   10110:	01f00293          	li	t0,31
   10114:	3a029073          	csrw	pmpcfg0,t0
   10118:	30405073          	csrw	mie,0
   1011c:	00000297          	auipc	t0,0x0
   10120:	01428293          	add	t0,t0,20 # 10130 <reset_vector+0xe0>
   10124:	30529073          	csrw	mtvec,t0
   10128:	30205073          	csrw	medeleg,0
   1012c:	30305073          	csrw	mideleg,0
   10130:	00000193          	li	gp,0
   10134:	00000297          	auipc	t0,0x0
   10138:	ed028293          	add	t0,t0,-304 # 10004 <trap_vector>
   1013c:	30529073          	csrw	mtvec,t0
   10140:	00100513          	li	a0,1
   10144:	01f51513          	sll	a0,a0,0x1f
   10148:	00055c63          	bgez	a0,10160 <reset_vector+0x110>
   1014c:	0ff0000f          	fence
   10150:	00100193          	li	gp,1
   10154:	05d00893          	li	a7,93
   10158:	00000513          	li	a0,0
   1015c:	00000073          	ecall
   10160:	00000293          	li	t0,0
   10164:	00028a63          	beqz	t0,10178 <reset_vector+0x128>
   10168:	10529073          	csrw	stvec,t0
   1016c:	0000b2b7          	lui	t0,0xb
   10170:	1092829b          	addw	t0,t0,265 # b109 <_start-0x4ef7>
   10174:	30229073          	csrw	medeleg,t0
   10178:	30005073          	csrw	mstatus,0
   1017c:	00000297          	auipc	t0,0x0
   10180:	01428293          	add	t0,t0,20 # 10190 <test_2>
   10184:	34129073          	csrw	mepc,t0
   10188:	f1402573          	csrr	a0,mhartid
   1018c:	30200073          	mret

0000000000010190 <test_2>:
   10190:	00200193          	li	gp,2
   10194:	00100093          	li	ra,1
   10198:	00000113          	li	sp,0
   1019c:	0020973b          	sllw	a4,ra,sp
   101a0:	00100393          	li	t2,1
   101a4:	5e771c63          	bne	a4,t2,1079c <fail>

00000000000101a8 <test_3>:
   101a8:	00300193          	li	gp,3
   101ac:	00100093          	li	ra,1
   101b0:	00100113          	li	sp,1
   101b4:	0020973b          	sllw	a4,ra,sp
   101b8:	00200393          	li	t2,2
   101bc:	5e771063          	bne	a4,t2,1079c <fail>

00000000000101c0 <test_4>:
   101c0:	00400193          	li	gp,4
   101c4:	00100093          	li	ra,1
   101c8:	00700113          	li	sp,7
   101cc:	0020973b          	sllw	a4,ra,sp
   101d0:	08000393          	li	t2,128
   101d4:	5c771463          	bne	a4,t2,1079c <fail>

00000000000101d8 <test_5>:
   101d8:	00500193          	li	gp,5
   101dc:	00100093          	li	ra,1
   101e0:	00e00113          	li	sp,14
   101e4:	0020973b          	sllw	a4,ra,sp
   101e8:	000043b7          	lui	t2,0x4
   101ec:	5a771863          	bne	a4,t2,1079c <fail>

00000000000101f0 <test_6>:
   101f0:	00600193          	li	gp,6
   101f4:	00100093          	li	ra,1
   101f8:	01f00113          	li	sp,31
   101fc:	0020973b          	sllw	a4,ra,sp
   10200:	800003b7          	lui	t2,0x80000
   10204:	58771c63          	bne	a4,t2,1079c <fail>

0000000000010208 <test_7>:
   10208:	00700193          	li	gp,7
   1020c:	fff00093          	li	ra,-1
   10210:	00000113          	li	sp,0
   10214:	0020973b          	sllw	a4,ra,sp
   10218:	fff00393          	li	t2,-1
   1021c:	58771063          	bne	a4,t2,1079c <fail>

0000000000010220 <test_8>:
   10220:	00800193          	li	gp,8
   10224:	fff00093          	li	ra,-1
   10228:	00100113          	li	sp,1
   1022c:	0020973b          	sllw	a4,ra,sp
   10230:	ffe00393          	li	t2,-2
   10234:	56771463          	bne	a4,t2,1079c <fail>

0000000000010238 <test_9>:
   10238:	00900193          	li	gp,9
   1023c:	fff00093          	li	ra,-1
   10240:	00700113          	li	sp,7
   10244:	0020973b          	sllw	a4,ra,sp
   10248:	f8000393          	li	t2,-128
   1024c:	54771863          	bne	a4,t2,1079c <fail>

0000000000010250 <test_10>:
   10250:	00a00193          	li	gp,10
   10254:	fff00093          	li	ra,-1
   10258:	00e00113          	li	sp,14
   1025c:	0020973b          	sllw	a4,ra,sp
   10260:	ffffc3b7          	lui	t2,0xffffc
   10264:	52771c63          	bne	a4,t2,1079c <fail>

0000000000010268 <test_11>:
   10268:	00b00193          	li	gp,11
   1026c:	fff00093          	li	ra,-1
   10270:	01f00113          	li	sp,31
   10274:	0020973b          	sllw	a4,ra,sp
   10278:	800003b7          	lui	t2,0x80000
   1027c:	52771063          	bne	a4,t2,1079c <fail>

0000000000010280 <test_12>:
   10280:	00c00193          	li	gp,12
   10284:	212120b7          	lui	ra,0x21212
   10288:	1210809b          	addw	ra,ra,289 # 21212121 <_end+0x21200121>
   1028c:	00000113          	li	sp,0
   10290:	0020973b          	sllw	a4,ra,sp
   10294:	212123b7          	lui	t2,0x21212
   10298:	1213839b          	addw	t2,t2,289 # 21212121 <_end+0x21200121>
   1029c:	50771063          	bne	a4,t2,1079c <fail>

00000000000102a0 <test_13>:
   102a0:	00d00193          	li	gp,13
   102a4:	212120b7          	lui	ra,0x21212
   102a8:	1210809b          	addw	ra,ra,289 # 21212121 <_end+0x21200121>
   102ac:	00100113          	li	sp,1
   102b0:	0020973b          	sllw	a4,ra,sp
   102b4:	424243b7          	lui	t2,0x42424
   102b8:	2423839b          	addw	t2,t2,578 # 42424242 <_end+0x42412242>
   102bc:	4e771063          	bne	a4,t2,1079c <fail>

00000000000102c0 <test_14>:
   102c0:	00e00193          	li	gp,14
   102c4:	212120b7          	lui	ra,0x21212
   102c8:	1210809b          	addw	ra,ra,289 # 21212121 <_end+0x21200121>
   102cc:	00700113          	li	sp,7
   102d0:	0020973b          	sllw	a4,ra,sp
   102d4:	909093b7          	lui	t2,0x90909
   102d8:	0803839b          	addw	t2,t2,128 # ffffffff90909080 <_end+0xffffffff908f7080>
   102dc:	4c771063          	bne	a4,t2,1079c <fail>

00000000000102e0 <test_15>:
   102e0:	00f00193          	li	gp,15
   102e4:	212120b7          	lui	ra,0x21212
   102e8:	1210809b          	addw	ra,ra,289 # 21212121 <_end+0x21200121>
   102ec:	00e00113          	li	sp,14
   102f0:	0020973b          	sllw	a4,ra,sp
   102f4:	484843b7          	lui	t2,0x48484
   102f8:	4a771263          	bne	a4,t2,1079c <fail>

00000000000102fc <test_16>:
   102fc:	01000193          	li	gp,16
   10300:	212120b7          	lui	ra,0x21212
   10304:	1210809b          	addw	ra,ra,289 # 21212121 <_end+0x21200121>
   10308:	01f00113          	li	sp,31
   1030c:	0020973b          	sllw	a4,ra,sp
   10310:	800003b7          	lui	t2,0x80000
   10314:	48771463          	bne	a4,t2,1079c <fail>

0000000000010318 <test_17>:
   10318:	01100193          	li	gp,17
   1031c:	212120b7          	lui	ra,0x21212
   10320:	1210809b          	addw	ra,ra,289 # 21212121 <_end+0x21200121>
   10324:	fe000113          	li	sp,-32
   10328:	0020973b          	sllw	a4,ra,sp
   1032c:	212123b7          	lui	t2,0x21212
   10330:	1213839b          	addw	t2,t2,289 # 21212121 <_end+0x21200121>
   10334:	46771463          	bne	a4,t2,1079c <fail>

0000000000010338 <test_18>:
   10338:	01200193          	li	gp,18
   1033c:	212120b7          	lui	ra,0x21212
   10340:	1210809b          	addw	ra,ra,289 # 21212121 <_end+0x21200121>
   10344:	fe100113          	li	sp,-31
   10348:	0020973b          	sllw	a4,ra,sp
   1034c:	424243b7          	lui	t2,0x42424
   10350:	2423839b          	addw	t2,t2,578 # 42424242 <_end+0x42412242>
   10354:	44771463          	bne	a4,t2,1079c <fail>

0000000000010358 <test_19>:
   10358:	01300193          	li	gp,19
   1035c:	212120b7          	lui	ra,0x21212
   10360:	1210809b          	addw	ra,ra,289 # 21212121 <_end+0x21200121>
   10364:	fe700113          	li	sp,-25
   10368:	0020973b          	sllw	a4,ra,sp
   1036c:	909093b7          	lui	t2,0x90909
   10370:	0803839b          	addw	t2,t2,128 # ffffffff90909080 <_end+0xffffffff908f7080>
   10374:	42771463          	bne	a4,t2,1079c <fail>

0000000000010378 <test_20>:
   10378:	01400193          	li	gp,20
   1037c:	212120b7          	lui	ra,0x21212
   10380:	1210809b          	addw	ra,ra,289 # 21212121 <_end+0x21200121>
   10384:	fee00113          	li	sp,-18
   10388:	0020973b          	sllw	a4,ra,sp
   1038c:	484843b7          	lui	t2,0x48484
   10390:	40771663          	bne	a4,t2,1079c <fail>

0000000000010394 <test_21>:
   10394:	01500193          	li	gp,21
   10398:	212120b7          	lui	ra,0x21212
   1039c:	1210809b          	addw	ra,ra,289 # 21212121 <_end+0x21200121>
   103a0:	fff00113          	li	sp,-1
   103a4:	0020973b          	sllw	a4,ra,sp
   103a8:	800003b7          	lui	t2,0x80000
   103ac:	3e771863          	bne	a4,t2,1079c <fail>

00000000000103b0 <test_44>:
   103b0:	02c00193          	li	gp,44
   103b4:	fff120b7          	lui	ra,0xfff12
   103b8:	3450809b          	addw	ra,ra,837 # fffffffffff12345 <_end+0xfffffffffff00345>
   103bc:	00c09093          	sll	ra,ra,0xc
   103c0:	67808093          	add	ra,ra,1656
   103c4:	00000113          	li	sp,0
   103c8:	0020973b          	sllw	a4,ra,sp
   103cc:	123453b7          	lui	t2,0x12345
   103d0:	6783839b          	addw	t2,t2,1656 # 12345678 <_end+0x12333678>
   103d4:	3c771463          	bne	a4,t2,1079c <fail>

00000000000103d8 <test_45>:
   103d8:	02d00193          	li	gp,45
   103dc:	fff120b7          	lui	ra,0xfff12
   103e0:	3450809b          	addw	ra,ra,837 # fffffffffff12345 <_end+0xfffffffffff00345>
   103e4:	00c09093          	sll	ra,ra,0xc
   103e8:	67808093          	add	ra,ra,1656
   103ec:	00400113          	li	sp,4
   103f0:	0020973b          	sllw	a4,ra,sp
   103f4:	234563b7          	lui	t2,0x23456
   103f8:	7803839b          	addw	t2,t2,1920 # 23456780 <_end+0x23444780>
   103fc:	3a771063          	bne	a4,t2,1079c <fail>

0000000000010400 <test_46>:
   10400:	02e00193          	li	gp,46
   10404:	000920b7          	lui	ra,0x92
   10408:	3450809b          	addw	ra,ra,837 # 92345 <_end+0x80345>
   1040c:	00c09093          	sll	ra,ra,0xc
   10410:	67808093          	add	ra,ra,1656
   10414:	00000113          	li	sp,0
   10418:	0020973b          	sllw	a4,ra,sp
   1041c:	923453b7          	lui	t2,0x92345
   10420:	6783839b          	addw	t2,t2,1656 # ffffffff92345678 <_end+0xffffffff92333678>
   10424:	36771c63          	bne	a4,t2,1079c <fail>

0000000000010428 <test_47>:
   10428:	02f00193          	li	gp,47
   1042c:	000990b7          	lui	ra,0x99
   10430:	3450809b          	addw	ra,ra,837 # 99345 <_end+0x87345>
   10434:	00c09093          	sll	ra,ra,0xc
   10438:	67808093          	add	ra,ra,1656
   1043c:	00400113          	li	sp,4
   10440:	0020973b          	sllw	a4,ra,sp
   10444:	934563b7          	lui	t2,0x93456
   10448:	7803839b          	addw	t2,t2,1920 # ffffffff93456780 <_end+0xffffffff93444780>
   1044c:	34771863          	bne	a4,t2,1079c <fail>

0000000000010450 <test_22>:
   10450:	01600193          	li	gp,22
   10454:	00100093          	li	ra,1
   10458:	00700113          	li	sp,7
   1045c:	002090bb          	sllw	ra,ra,sp
   10460:	08000393          	li	t2,128
   10464:	32709c63          	bne	ra,t2,1079c <fail>

0000000000010468 <test_23>:
   10468:	01700193          	li	gp,23
   1046c:	00100093          	li	ra,1
   10470:	00e00113          	li	sp,14
   10474:	0020913b          	sllw	sp,ra,sp
   10478:	000043b7          	lui	t2,0x4
   1047c:	32711063          	bne	sp,t2,1079c <fail>

0000000000010480 <test_24>:
   10480:	01800193          	li	gp,24
   10484:	00300093          	li	ra,3
   10488:	001090bb          	sllw	ra,ra,ra
   1048c:	01800393          	li	t2,24
   10490:	30709663          	bne	ra,t2,1079c <fail>

0000000000010494 <test_25>:
   10494:	01900193          	li	gp,25
   10498:	00000213          	li	tp,0
   1049c:	00100093          	li	ra,1
   104a0:	00700113          	li	sp,7
   104a4:	0020973b          	sllw	a4,ra,sp
   104a8:	00070313          	mv	t1,a4
   104ac:	00120213          	add	tp,tp,1 # 1 <_start-0xffff>
   104b0:	00200293          	li	t0,2
   104b4:	fe5214e3          	bne	tp,t0,1049c <test_25+0x8>
   104b8:	08000393          	li	t2,128
   104bc:	2e731063          	bne	t1,t2,1079c <fail>

00000000000104c0 <test_26>:
   104c0:	01a00193          	li	gp,26
   104c4:	00000213          	li	tp,0
   104c8:	00100093          	li	ra,1
   104cc:	00e00113          	li	sp,14
   104d0:	0020973b          	sllw	a4,ra,sp
   104d4:	00000013          	nop
   104d8:	00070313          	mv	t1,a4
   104dc:	00120213          	add	tp,tp,1 # 1 <_start-0xffff>
   104e0:	00200293          	li	t0,2
   104e4:	fe5212e3          	bne	tp,t0,104c8 <test_26+0x8>
   104e8:	000043b7          	lui	t2,0x4
   104ec:	2a731863          	bne	t1,t2,1079c <fail>

00000000000104f0 <test_27>:
   104f0:	01b00193          	li	gp,27
   104f4:	00000213          	li	tp,0
   104f8:	00100093          	li	ra,1
   104fc:	01f00113          	li	sp,31
   10500:	0020973b          	sllw	a4,ra,sp
   10504:	00000013          	nop
   10508:	00000013          	nop
   1050c:	00070313          	mv	t1,a4
   10510:	00120213          	add	tp,tp,1 # 1 <_start-0xffff>
   10514:	00200293          	li	t0,2
   10518:	fe5210e3          	bne	tp,t0,104f8 <test_27+0x8>
   1051c:	800003b7          	lui	t2,0x80000
   10520:	26731e63          	bne	t1,t2,1079c <fail>

0000000000010524 <test_28>:
   10524:	01c00193          	li	gp,28
   10528:	00000213          	li	tp,0
   1052c:	00100093          	li	ra,1
   10530:	00700113          	li	sp,7
   10534:	0020973b          	sllw	a4,ra,sp
   10538:	00120213          	add	tp,tp,1 # 1 <_start-0xffff>
   1053c:	00200293          	li	t0,2
   10540:	fe5216e3          	bne	tp,t0,1052c <test_28+0x8>
   10544:	08000393          	li	t2,128
   10548:	24771a63          	bne	a4,t2,1079c <fail>

000000000001054c <test_29>:
   1054c:	01d00193          	li	gp,29
   10550:	00000213          	li	tp,0
   10554:	00100093          	li	ra,1
   10558:	00e00113          	li	sp,14
   1055c:	00000013          	nop
   10560:	0020973b          	sllw	a4,ra,sp
   10564:	00120213          	add	tp,tp,1 # 1 <_start-0xffff>
   10568:	00200293          	li	t0,2
   1056c:	fe5214e3          	bne	tp,t0,10554 <test_29+0x8>
   10570:	000043b7          	lui	t2,0x4
   10574:	22771463          	bne	a4,t2,1079c <fail>

0000000000010578 <test_30>:
   10578:	01e00193          	li	gp,30
   1057c:	00000213          	li	tp,0
   10580:	00100093          	li	ra,1
   10584:	01f00113          	li	sp,31
   10588:	00000013          	nop
   1058c:	00000013          	nop
   10590:	0020973b          	sllw	a4,ra,sp
   10594:	00120213          	add	tp,tp,1 # 1 <_start-0xffff>
   10598:	00200293          	li	t0,2
   1059c:	fe5212e3          	bne	tp,t0,10580 <test_30+0x8>
   105a0:	800003b7          	lui	t2,0x80000
   105a4:	1e771c63          	bne	a4,t2,1079c <fail>

00000000000105a8 <test_31>:
   105a8:	01f00193          	li	gp,31
   105ac:	00000213          	li	tp,0
   105b0:	00100093          	li	ra,1
   105b4:	00000013          	nop
   105b8:	00700113          	li	sp,7
   105bc:	0020973b          	sllw	a4,ra,sp
   105c0:	00120213          	add	tp,tp,1 # 1 <_start-0xffff>
   105c4:	00200293          	li	t0,2
   105c8:	fe5214e3          	bne	tp,t0,105b0 <test_31+0x8>
   105cc:	08000393          	li	t2,128
   105d0:	1c771663          	bne	a4,t2,1079c <fail>

00000000000105d4 <test_32>:
   105d4:	02000193          	li	gp,32
   105d8:	00000213          	li	tp,0
   105dc:	00100093          	li	ra,1
   105e0:	00000013          	nop
   105e4:	00e00113          	li	sp,14
   105e8:	00000013          	nop
   105ec:	0020973b          	sllw	a4,ra,sp
   105f0:	00120213          	add	tp,tp,1 # 1 <_start-0xffff>
   105f4:	00200293          	li	t0,2
   105f8:	fe5212e3          	bne	tp,t0,105dc <test_32+0x8>
   105fc:	000043b7          	lui	t2,0x4
   10600:	18771e63          	bne	a4,t2,1079c <fail>

0000000000010604 <test_33>:
   10604:	02100193          	li	gp,33
   10608:	00000213          	li	tp,0
   1060c:	00100093          	li	ra,1
   10610:	00000013          	nop
   10614:	00000013          	nop
   10618:	01f00113          	li	sp,31
   1061c:	0020973b          	sllw	a4,ra,sp
   10620:	00120213          	add	tp,tp,1 # 1 <_start-0xffff>
   10624:	00200293          	li	t0,2
   10628:	fe5212e3          	bne	tp,t0,1060c <test_33+0x8>
   1062c:	800003b7          	lui	t2,0x80000
   10630:	16771663          	bne	a4,t2,1079c <fail>

0000000000010634 <test_34>:
   10634:	02200193          	li	gp,34
   10638:	00000213          	li	tp,0
   1063c:	00700113          	li	sp,7
   10640:	00100093          	li	ra,1
   10644:	0020973b          	sllw	a4,ra,sp
   10648:	00120213          	add	tp,tp,1 # 1 <_start-0xffff>
   1064c:	00200293          	li	t0,2
   10650:	fe5216e3          	bne	tp,t0,1063c <test_34+0x8>
   10654:	08000393          	li	t2,128
   10658:	14771263          	bne	a4,t2,1079c <fail>

000000000001065c <test_35>:
   1065c:	02300193          	li	gp,35
   10660:	00000213          	li	tp,0
   10664:	00e00113          	li	sp,14
   10668:	00100093          	li	ra,1
   1066c:	00000013          	nop
   10670:	0020973b          	sllw	a4,ra,sp
   10674:	00120213          	add	tp,tp,1 # 1 <_start-0xffff>
   10678:	00200293          	li	t0,2
   1067c:	fe5214e3          	bne	tp,t0,10664 <test_35+0x8>
   10680:	000043b7          	lui	t2,0x4
   10684:	10771c63          	bne	a4,t2,1079c <fail>

0000000000010688 <test_36>:
   10688:	02400193          	li	gp,36
   1068c:	00000213          	li	tp,0
   10690:	01f00113          	li	sp,31
   10694:	00100093          	li	ra,1
   10698:	00000013          	nop
   1069c:	00000013          	nop
   106a0:	0020973b          	sllw	a4,ra,sp
   106a4:	00120213          	add	tp,tp,1 # 1 <_start-0xffff>
   106a8:	00200293          	li	t0,2
   106ac:	fe5212e3          	bne	tp,t0,10690 <test_36+0x8>
   106b0:	800003b7          	lui	t2,0x80000
   106b4:	0e771463          	bne	a4,t2,1079c <fail>

00000000000106b8 <test_37>:
   106b8:	02500193          	li	gp,37
   106bc:	00000213          	li	tp,0
   106c0:	00700113          	li	sp,7
   106c4:	00000013          	nop
   106c8:	00100093          	li	ra,1
   106cc:	0020973b          	sllw	a4,ra,sp
   106d0:	00120213          	add	tp,tp,1 # 1 <_start-0xffff>
   106d4:	00200293          	li	t0,2
   106d8:	fe5214e3          	bne	tp,t0,106c0 <test_37+0x8>
   106dc:	08000393          	li	t2,128
   106e0:	0a771e63          	bne	a4,t2,1079c <fail>

00000000000106e4 <test_38>:
   106e4:	02600193          	li	gp,38
   106e8:	00000213          	li	tp,0
   106ec:	00e00113          	li	sp,14
   106f0:	00000013          	nop
   106f4:	00100093          	li	ra,1
   106f8:	00000013          	nop
   106fc:	0020973b          	sllw	a4,ra,sp
   10700:	00120213          	add	tp,tp,1 # 1 <_start-0xffff>
   10704:	00200293          	li	t0,2
   10708:	fe5212e3          	bne	tp,t0,106ec <test_38+0x8>
   1070c:	000043b7          	lui	t2,0x4
   10710:	08771663          	bne	a4,t2,1079c <fail>

0000000000010714 <test_39>:
   10714:	02700193          	li	gp,39
   10718:	00000213          	li	tp,0
   1071c:	01f00113          	li	sp,31
   10720:	00000013          	nop
   10724:	00000013          	nop
   10728:	00100093          	li	ra,1
   1072c:	0020973b          	sllw	a4,ra,sp
   10730:	00120213          	add	tp,tp,1 # 1 <_start-0xffff>
   10734:	00200293          	li	t0,2
   10738:	fe5212e3          	bne	tp,t0,1071c <test_39+0x8>
   1073c:	800003b7          	lui	t2,0x80000
   10740:	04771e63          	bne	a4,t2,1079c <fail>

0000000000010744 <test_40>:
   10744:	02800193          	li	gp,40
   10748:	00f00093          	li	ra,15
   1074c:	0010113b          	sllw	sp,zero,ra
   10750:	00000393          	li	t2,0
   10754:	04711463          	bne	sp,t2,1079c <fail>

0000000000010758 <test_41>:
   10758:	02900193          	li	gp,41
   1075c:	02000093          	li	ra,32
   10760:	0000913b          	sllw	sp,ra,zero
   10764:	02000393          	li	t2,32
   10768:	02711a63          	bne	sp,t2,1079c <fail>

000000000001076c <test_42>:
   1076c:	02a00193          	li	gp,42
   10770:	000010bb          	sllw	ra,zero,zero
   10774:	00000393          	li	t2,0
   10778:	02709263          	bne	ra,t2,1079c <fail>

000000000001077c <test_43>:
   1077c:	02b00193          	li	gp,43
   10780:	40000093          	li	ra,1024
   10784:	00001137          	lui	sp,0x1
   10788:	8001011b          	addw	sp,sp,-2048 # 800 <_start-0xf800>
   1078c:	0020903b          	sllw	zero,ra,sp
   10790:	00000393          	li	t2,0
   10794:	00701463          	bne	zero,t2,1079c <fail>
   10798:	02301063          	bne	zero,gp,107b8 <pass>

000000000001079c <fail>:
   1079c:	0ff0000f          	fence
   107a0:	00018063          	beqz	gp,107a0 <fail+0x4>
   107a4:	00119193          	sll	gp,gp,0x1
   107a8:	0011e193          	or	gp,gp,1
   107ac:	05d00893          	li	a7,93
   107b0:	00018513          	mv	a0,gp
   107b4:	00000073          	ecall

00000000000107b8 <pass>:
   107b8:	0ff0000f          	fence
   107bc:	00100193          	li	gp,1
   107c0:	05d00893          	li	a7,93
   107c4:	00000513          	li	a0,0
   107c8:	00000073          	ecall
   107cc:	c0001073          	unimp
   107d0:	0000                	.2byte	0x0
   107d2:	0000                	.2byte	0x0
   107d4:	0000                	.2byte	0x0
   107d6:	0000                	.2byte	0x0
   107d8:	0000                	.2byte	0x0
   107da:	0000                	.2byte	0x0
   107dc:	0000                	.2byte	0x0
   107de:	0000                	.2byte	0x0
   107e0:	0000                	.2byte	0x0
   107e2:	0000                	.2byte	0x0
   107e4:	0000                	.2byte	0x0
   107e6:	0000                	.2byte	0x0
   107e8:	0000                	.2byte	0x0
   107ea:	0000                	.2byte	0x0
   107ec:	0000                	.2byte	0x0
   107ee:	0000                	.2byte	0x0
   107f0:	0000                	.2byte	0x0
   107f2:	0000                	.2byte	0x0
   107f4:	0000                	.2byte	0x0
   107f6:	0000                	.2byte	0x0
   107f8:	0000                	.2byte	0x0
   107fa:	0000                	.2byte	0x0
