
rv64ui-p-slti:     file format elf64-littleriscv


Disassembly of section .text.init:

0000000000010000 <_start>:
   10000:	0500006f          	j	10050 <reset_vector>

0000000000010004 <trap_vector>:
   10004:	34202f73          	csrr	t5,mcause
   10008:	00800f93          	li	t6,8
   1000c:	03ff0863          	beq	t5,t6,1003c <write_tohost>
   10010:	00900f93          	li	t6,9
   10014:	03ff0463          	beq	t5,t6,1003c <write_tohost>
   10018:	00b00f93          	li	t6,11
   1001c:	03ff0063          	beq	t5,t6,1003c <write_tohost>
   10020:	00000f13          	li	t5,0
   10024:	000f0463          	beqz	t5,1002c <trap_vector+0x28>
   10028:	000f0067          	jr	t5
   1002c:	34202f73          	csrr	t5,mcause
   10030:	000f5463          	bgez	t5,10038 <handle_exception>
   10034:	0040006f          	j	10038 <handle_exception>

0000000000010038 <handle_exception>:
   10038:	5391e193          	or	gp,gp,1337

000000000001003c <write_tohost>:
   1003c:	00001f17          	auipc	t5,0x1
   10040:	fc3f2223          	sw	gp,-60(t5) # 11000 <tohost>
   10044:	00001f17          	auipc	t5,0x1
   10048:	fc0f2023          	sw	zero,-64(t5) # 11004 <tohost+0x4>
   1004c:	ff1ff06f          	j	1003c <write_tohost>

0000000000010050 <reset_vector>:
   10050:	00000093          	li	ra,0
   10054:	00000113          	li	sp,0
   10058:	00000193          	li	gp,0
   1005c:	00000213          	li	tp,0
   10060:	00000293          	li	t0,0
   10064:	00000313          	li	t1,0
   10068:	00000393          	li	t2,0
   1006c:	00000413          	li	s0,0
   10070:	00000493          	li	s1,0
   10074:	00000513          	li	a0,0
   10078:	00000593          	li	a1,0
   1007c:	00000613          	li	a2,0
   10080:	00000693          	li	a3,0
   10084:	00000713          	li	a4,0
   10088:	00000793          	li	a5,0
   1008c:	00000813          	li	a6,0
   10090:	00000893          	li	a7,0
   10094:	00000913          	li	s2,0
   10098:	00000993          	li	s3,0
   1009c:	00000a13          	li	s4,0
   100a0:	00000a93          	li	s5,0
   100a4:	00000b13          	li	s6,0
   100a8:	00000b93          	li	s7,0
   100ac:	00000c13          	li	s8,0
   100b0:	00000c93          	li	s9,0
   100b4:	00000d13          	li	s10,0
   100b8:	00000d93          	li	s11,0
   100bc:	00000e13          	li	t3,0
   100c0:	00000e93          	li	t4,0
   100c4:	00000f13          	li	t5,0
   100c8:	00000f93          	li	t6,0
   100cc:	f1402573          	csrr	a0,mhartid
   100d0:	00051063          	bnez	a0,100d0 <reset_vector+0x80>
   100d4:	00000297          	auipc	t0,0x0
   100d8:	01028293          	add	t0,t0,16 # 100e4 <reset_vector+0x94>
   100dc:	30529073          	csrw	mtvec,t0
   100e0:	74445073          	csrw	0x744,8
   100e4:	00000297          	auipc	t0,0x0
   100e8:	01028293          	add	t0,t0,16 # 100f4 <reset_vector+0xa4>
   100ec:	30529073          	csrw	mtvec,t0
   100f0:	18005073          	csrw	satp,0
   100f4:	00000297          	auipc	t0,0x0
   100f8:	02428293          	add	t0,t0,36 # 10118 <reset_vector+0xc8>
   100fc:	30529073          	csrw	mtvec,t0
   10100:	0010029b          	addw	t0,zero,1
   10104:	03529293          	sll	t0,t0,0x35
   10108:	fff28293          	add	t0,t0,-1
   1010c:	3b029073          	csrw	pmpaddr0,t0
   10110:	01f00293          	li	t0,31
   10114:	3a029073          	csrw	pmpcfg0,t0
   10118:	30405073          	csrw	mie,0
   1011c:	00000297          	auipc	t0,0x0
   10120:	01428293          	add	t0,t0,20 # 10130 <reset_vector+0xe0>
   10124:	30529073          	csrw	mtvec,t0
   10128:	30205073          	csrw	medeleg,0
   1012c:	30305073          	csrw	mideleg,0
   10130:	00000193          	li	gp,0
   10134:	00000297          	auipc	t0,0x0
   10138:	ed028293          	add	t0,t0,-304 # 10004 <trap_vector>
   1013c:	30529073          	csrw	mtvec,t0
   10140:	00100513          	li	a0,1
   10144:	01f51513          	sll	a0,a0,0x1f
   10148:	00055c63          	bgez	a0,10160 <reset_vector+0x110>
   1014c:	0ff0000f          	fence
   10150:	00100193          	li	gp,1
   10154:	05d00893          	li	a7,93
   10158:	00000513          	li	a0,0
   1015c:	00000073          	ecall
   10160:	00000293          	li	t0,0
   10164:	00028a63          	beqz	t0,10178 <reset_vector+0x128>
   10168:	10529073          	csrw	stvec,t0
   1016c:	0000b2b7          	lui	t0,0xb
   10170:	1092829b          	addw	t0,t0,265 # b109 <_start-0x4ef7>
   10174:	30229073          	csrw	medeleg,t0
   10178:	30005073          	csrw	mstatus,0
   1017c:	00000297          	auipc	t0,0x0
   10180:	01428293          	add	t0,t0,20 # 10190 <test_2>
   10184:	34129073          	csrw	mepc,t0
   10188:	f1402573          	csrr	a0,mhartid
   1018c:	30200073          	mret

0000000000010190 <test_2>:
   10190:	00200193          	li	gp,2
   10194:	00000093          	li	ra,0
   10198:	0000a713          	slti	a4,ra,0
   1019c:	00000393          	li	t2,0
   101a0:	26771263          	bne	a4,t2,10404 <fail>

00000000000101a4 <test_3>:
   101a4:	00300193          	li	gp,3
   101a8:	00100093          	li	ra,1
   101ac:	0010a713          	slti	a4,ra,1
   101b0:	00000393          	li	t2,0
   101b4:	24771863          	bne	a4,t2,10404 <fail>

00000000000101b8 <test_4>:
   101b8:	00400193          	li	gp,4
   101bc:	00300093          	li	ra,3
   101c0:	0070a713          	slti	a4,ra,7
   101c4:	00100393          	li	t2,1
   101c8:	22771e63          	bne	a4,t2,10404 <fail>

00000000000101cc <test_5>:
   101cc:	00500193          	li	gp,5
   101d0:	00700093          	li	ra,7
   101d4:	0030a713          	slti	a4,ra,3
   101d8:	00000393          	li	t2,0
   101dc:	22771463          	bne	a4,t2,10404 <fail>

00000000000101e0 <test_6>:
   101e0:	00600193          	li	gp,6
   101e4:	00000093          	li	ra,0
   101e8:	8000a713          	slti	a4,ra,-2048
   101ec:	00000393          	li	t2,0
   101f0:	20771a63          	bne	a4,t2,10404 <fail>

00000000000101f4 <test_7>:
   101f4:	00700193          	li	gp,7
   101f8:	800000b7          	lui	ra,0x80000
   101fc:	0000a713          	slti	a4,ra,0
   10200:	00100393          	li	t2,1
   10204:	20771063          	bne	a4,t2,10404 <fail>

0000000000010208 <test_8>:
   10208:	00800193          	li	gp,8
   1020c:	800000b7          	lui	ra,0x80000
   10210:	8000a713          	slti	a4,ra,-2048
   10214:	00100393          	li	t2,1
   10218:	1e771663          	bne	a4,t2,10404 <fail>

000000000001021c <test_9>:
   1021c:	00900193          	li	gp,9
   10220:	00000093          	li	ra,0
   10224:	7ff0a713          	slti	a4,ra,2047
   10228:	00100393          	li	t2,1
   1022c:	1c771c63          	bne	a4,t2,10404 <fail>

0000000000010230 <test_10>:
   10230:	00a00193          	li	gp,10
   10234:	800000b7          	lui	ra,0x80000
   10238:	fff0809b          	addw	ra,ra,-1 # 7fffffff <_end+0x7ffedfff>
   1023c:	0000a713          	slti	a4,ra,0
   10240:	00000393          	li	t2,0
   10244:	1c771063          	bne	a4,t2,10404 <fail>

0000000000010248 <test_11>:
   10248:	00b00193          	li	gp,11
   1024c:	800000b7          	lui	ra,0x80000
   10250:	fff0809b          	addw	ra,ra,-1 # 7fffffff <_end+0x7ffedfff>
   10254:	7ff0a713          	slti	a4,ra,2047
   10258:	00000393          	li	t2,0
   1025c:	1a771463          	bne	a4,t2,10404 <fail>

0000000000010260 <test_12>:
   10260:	00c00193          	li	gp,12
   10264:	800000b7          	lui	ra,0x80000
   10268:	7ff0a713          	slti	a4,ra,2047
   1026c:	00100393          	li	t2,1
   10270:	18771a63          	bne	a4,t2,10404 <fail>

0000000000010274 <test_13>:
   10274:	00d00193          	li	gp,13
   10278:	800000b7          	lui	ra,0x80000
   1027c:	fff0809b          	addw	ra,ra,-1 # 7fffffff <_end+0x7ffedfff>
   10280:	8000a713          	slti	a4,ra,-2048
   10284:	00000393          	li	t2,0
   10288:	16771e63          	bne	a4,t2,10404 <fail>

000000000001028c <test_14>:
   1028c:	00e00193          	li	gp,14
   10290:	00000093          	li	ra,0
   10294:	fff0a713          	slti	a4,ra,-1
   10298:	00000393          	li	t2,0
   1029c:	16771463          	bne	a4,t2,10404 <fail>

00000000000102a0 <test_15>:
   102a0:	00f00193          	li	gp,15
   102a4:	fff00093          	li	ra,-1
   102a8:	0010a713          	slti	a4,ra,1
   102ac:	00100393          	li	t2,1
   102b0:	14771a63          	bne	a4,t2,10404 <fail>

00000000000102b4 <test_16>:
   102b4:	01000193          	li	gp,16
   102b8:	fff00093          	li	ra,-1
   102bc:	fff0a713          	slti	a4,ra,-1
   102c0:	00000393          	li	t2,0
   102c4:	14771063          	bne	a4,t2,10404 <fail>

00000000000102c8 <test_17>:
   102c8:	01100193          	li	gp,17
   102cc:	00b00093          	li	ra,11
   102d0:	00d0a093          	slti	ra,ra,13
   102d4:	00100393          	li	t2,1
   102d8:	12709663          	bne	ra,t2,10404 <fail>

00000000000102dc <test_18>:
   102dc:	01200193          	li	gp,18
   102e0:	00000213          	li	tp,0
   102e4:	00f00093          	li	ra,15
   102e8:	00a0a713          	slti	a4,ra,10
   102ec:	00070313          	mv	t1,a4
   102f0:	00120213          	add	tp,tp,1 # 1 <_start-0xffff>
   102f4:	00200293          	li	t0,2
   102f8:	fe5216e3          	bne	tp,t0,102e4 <test_18+0x8>
   102fc:	00000393          	li	t2,0
   10300:	10731263          	bne	t1,t2,10404 <fail>

0000000000010304 <test_19>:
   10304:	01300193          	li	gp,19
   10308:	00000213          	li	tp,0
   1030c:	00a00093          	li	ra,10
   10310:	0100a713          	slti	a4,ra,16
   10314:	00000013          	nop
   10318:	00070313          	mv	t1,a4
   1031c:	00120213          	add	tp,tp,1 # 1 <_start-0xffff>
   10320:	00200293          	li	t0,2
   10324:	fe5214e3          	bne	tp,t0,1030c <test_19+0x8>
   10328:	00100393          	li	t2,1
   1032c:	0c731c63          	bne	t1,t2,10404 <fail>

0000000000010330 <test_20>:
   10330:	01400193          	li	gp,20
   10334:	00000213          	li	tp,0
   10338:	01000093          	li	ra,16
   1033c:	0090a713          	slti	a4,ra,9
   10340:	00000013          	nop
   10344:	00000013          	nop
   10348:	00070313          	mv	t1,a4
   1034c:	00120213          	add	tp,tp,1 # 1 <_start-0xffff>
   10350:	00200293          	li	t0,2
   10354:	fe5212e3          	bne	tp,t0,10338 <test_20+0x8>
   10358:	00000393          	li	t2,0
   1035c:	0a731463          	bne	t1,t2,10404 <fail>

0000000000010360 <test_21>:
   10360:	01500193          	li	gp,21
   10364:	00000213          	li	tp,0
   10368:	00b00093          	li	ra,11
   1036c:	00f0a713          	slti	a4,ra,15
   10370:	00120213          	add	tp,tp,1 # 1 <_start-0xffff>
   10374:	00200293          	li	t0,2
   10378:	fe5218e3          	bne	tp,t0,10368 <test_21+0x8>
   1037c:	00100393          	li	t2,1
   10380:	08771263          	bne	a4,t2,10404 <fail>

0000000000010384 <test_22>:
   10384:	01600193          	li	gp,22
   10388:	00000213          	li	tp,0
   1038c:	01100093          	li	ra,17
   10390:	00000013          	nop
   10394:	0080a713          	slti	a4,ra,8
   10398:	00120213          	add	tp,tp,1 # 1 <_start-0xffff>
   1039c:	00200293          	li	t0,2
   103a0:	fe5216e3          	bne	tp,t0,1038c <test_22+0x8>
   103a4:	00000393          	li	t2,0
   103a8:	04771e63          	bne	a4,t2,10404 <fail>

00000000000103ac <test_23>:
   103ac:	01700193          	li	gp,23
   103b0:	00000213          	li	tp,0
   103b4:	00c00093          	li	ra,12
   103b8:	00000013          	nop
   103bc:	00000013          	nop
   103c0:	00e0a713          	slti	a4,ra,14
   103c4:	00120213          	add	tp,tp,1 # 1 <_start-0xffff>
   103c8:	00200293          	li	t0,2
   103cc:	fe5214e3          	bne	tp,t0,103b4 <test_23+0x8>
   103d0:	00100393          	li	t2,1
   103d4:	02771863          	bne	a4,t2,10404 <fail>

00000000000103d8 <test_24>:
   103d8:	01800193          	li	gp,24
   103dc:	fff02093          	slti	ra,zero,-1
   103e0:	00000393          	li	t2,0
   103e4:	02709063          	bne	ra,t2,10404 <fail>

00000000000103e8 <test_25>:
   103e8:	01900193          	li	gp,25
   103ec:	00ff00b7          	lui	ra,0xff0
   103f0:	0ff0809b          	addw	ra,ra,255 # ff00ff <_end+0xfde0ff>
   103f4:	fff0a013          	slti	zero,ra,-1
   103f8:	00000393          	li	t2,0
   103fc:	00701463          	bne	zero,t2,10404 <fail>
   10400:	02301063          	bne	zero,gp,10420 <pass>

0000000000010404 <fail>:
   10404:	0ff0000f          	fence
   10408:	00018063          	beqz	gp,10408 <fail+0x4>
   1040c:	00119193          	sll	gp,gp,0x1
   10410:	0011e193          	or	gp,gp,1
   10414:	05d00893          	li	a7,93
   10418:	00018513          	mv	a0,gp
   1041c:	00000073          	ecall

0000000000010420 <pass>:
   10420:	0ff0000f          	fence
   10424:	00100193          	li	gp,1
   10428:	05d00893          	li	a7,93
   1042c:	00000513          	li	a0,0
   10430:	00000073          	ecall
   10434:	c0001073          	unimp
   10438:	0000                	.2byte	0x0
   1043a:	0000                	.2byte	0x0
