
rv64ui-p-sb:     file format elf64-littleriscv


Disassembly of section .text.init:

0000000000010000 <_start>:
   10000:	0500006f          	j	10050 <reset_vector>

0000000000010004 <trap_vector>:
   10004:	34202f73          	csrr	t5,mcause
   10008:	00800f93          	li	t6,8
   1000c:	03ff0863          	beq	t5,t6,1003c <write_tohost>
   10010:	00900f93          	li	t6,9
   10014:	03ff0463          	beq	t5,t6,1003c <write_tohost>
   10018:	00b00f93          	li	t6,11
   1001c:	03ff0063          	beq	t5,t6,1003c <write_tohost>
   10020:	00000f13          	li	t5,0
   10024:	000f0463          	beqz	t5,1002c <trap_vector+0x28>
   10028:	000f0067          	jr	t5
   1002c:	34202f73          	csrr	t5,mcause
   10030:	000f5463          	bgez	t5,10038 <handle_exception>
   10034:	0040006f          	j	10038 <handle_exception>

0000000000010038 <handle_exception>:
   10038:	5391e193          	or	gp,gp,1337

000000000001003c <write_tohost>:
   1003c:	00001f17          	auipc	t5,0x1
   10040:	fc3f2223          	sw	gp,-60(t5) # 11000 <tohost>
   10044:	00001f17          	auipc	t5,0x1
   10048:	fc0f2023          	sw	zero,-64(t5) # 11004 <tohost+0x4>
   1004c:	ff1ff06f          	j	1003c <write_tohost>

0000000000010050 <reset_vector>:
   10050:	00000093          	li	ra,0
   10054:	00000113          	li	sp,0
   10058:	00000193          	li	gp,0
   1005c:	00000213          	li	tp,0
   10060:	00000293          	li	t0,0
   10064:	00000313          	li	t1,0
   10068:	00000393          	li	t2,0
   1006c:	00000413          	li	s0,0
   10070:	00000493          	li	s1,0
   10074:	00000513          	li	a0,0
   10078:	00000593          	li	a1,0
   1007c:	00000613          	li	a2,0
   10080:	00000693          	li	a3,0
   10084:	00000713          	li	a4,0
   10088:	00000793          	li	a5,0
   1008c:	00000813          	li	a6,0
   10090:	00000893          	li	a7,0
   10094:	00000913          	li	s2,0
   10098:	00000993          	li	s3,0
   1009c:	00000a13          	li	s4,0
   100a0:	00000a93          	li	s5,0
   100a4:	00000b13          	li	s6,0
   100a8:	00000b93          	li	s7,0
   100ac:	00000c13          	li	s8,0
   100b0:	00000c93          	li	s9,0
   100b4:	00000d13          	li	s10,0
   100b8:	00000d93          	li	s11,0
   100bc:	00000e13          	li	t3,0
   100c0:	00000e93          	li	t4,0
   100c4:	00000f13          	li	t5,0
   100c8:	00000f93          	li	t6,0
   100cc:	f1402573          	csrr	a0,mhartid
   100d0:	00051063          	bnez	a0,100d0 <reset_vector+0x80>
   100d4:	00000297          	auipc	t0,0x0
   100d8:	01028293          	add	t0,t0,16 # 100e4 <reset_vector+0x94>
   100dc:	30529073          	csrw	mtvec,t0
   100e0:	74445073          	csrw	0x744,8
   100e4:	00000297          	auipc	t0,0x0
   100e8:	01028293          	add	t0,t0,16 # 100f4 <reset_vector+0xa4>
   100ec:	30529073          	csrw	mtvec,t0
   100f0:	18005073          	csrw	satp,0
   100f4:	00000297          	auipc	t0,0x0
   100f8:	02428293          	add	t0,t0,36 # 10118 <reset_vector+0xc8>
   100fc:	30529073          	csrw	mtvec,t0
   10100:	0010029b          	addw	t0,zero,1
   10104:	03529293          	sll	t0,t0,0x35
   10108:	fff28293          	add	t0,t0,-1
   1010c:	3b029073          	csrw	pmpaddr0,t0
   10110:	01f00293          	li	t0,31
   10114:	3a029073          	csrw	pmpcfg0,t0
   10118:	30405073          	csrw	mie,0
   1011c:	00000297          	auipc	t0,0x0
   10120:	01428293          	add	t0,t0,20 # 10130 <reset_vector+0xe0>
   10124:	30529073          	csrw	mtvec,t0
   10128:	30205073          	csrw	medeleg,0
   1012c:	30305073          	csrw	mideleg,0
   10130:	00000193          	li	gp,0
   10134:	00000297          	auipc	t0,0x0
   10138:	ed028293          	add	t0,t0,-304 # 10004 <trap_vector>
   1013c:	30529073          	csrw	mtvec,t0
   10140:	00100513          	li	a0,1
   10144:	01f51513          	sll	a0,a0,0x1f
   10148:	00055c63          	bgez	a0,10160 <reset_vector+0x110>
   1014c:	0ff0000f          	fence
   10150:	00100193          	li	gp,1
   10154:	05d00893          	li	a7,93
   10158:	00000513          	li	a0,0
   1015c:	00000073          	ecall
   10160:	00000293          	li	t0,0
   10164:	00028a63          	beqz	t0,10178 <reset_vector+0x128>
   10168:	10529073          	csrw	stvec,t0
   1016c:	0000b2b7          	lui	t0,0xb
   10170:	1092829b          	addw	t0,t0,265 # b109 <_start-0x4ef7>
   10174:	30229073          	csrw	medeleg,t0
   10178:	30005073          	csrw	mstatus,0
   1017c:	00000297          	auipc	t0,0x0
   10180:	01428293          	add	t0,t0,20 # 10190 <test_2>
   10184:	34129073          	csrw	mepc,t0
   10188:	f1402573          	csrr	a0,mhartid
   1018c:	30200073          	mret

0000000000010190 <test_2>:
   10190:	00200193          	li	gp,2
   10194:	00002097          	auipc	ra,0x2
   10198:	e6c08093          	add	ra,ra,-404 # 12000 <begin_signature>
   1019c:	faa00113          	li	sp,-86
   101a0:	00000797          	auipc	a5,0x0
   101a4:	01478793          	add	a5,a5,20 # 101b4 <test_2+0x24>
   101a8:	00208023          	sb	sp,0(ra)
   101ac:	00008703          	lb	a4,0(ra)
   101b0:	0080006f          	j	101b8 <test_2+0x28>
   101b4:	00010713          	mv	a4,sp
   101b8:	faa00393          	li	t2,-86
   101bc:	44771463          	bne	a4,t2,10604 <fail>

00000000000101c0 <test_3>:
   101c0:	00300193          	li	gp,3
   101c4:	00002097          	auipc	ra,0x2
   101c8:	e3c08093          	add	ra,ra,-452 # 12000 <begin_signature>
   101cc:	00000113          	li	sp,0
   101d0:	00000797          	auipc	a5,0x0
   101d4:	01478793          	add	a5,a5,20 # 101e4 <test_3+0x24>
   101d8:	002080a3          	sb	sp,1(ra)
   101dc:	00108703          	lb	a4,1(ra)
   101e0:	0080006f          	j	101e8 <test_3+0x28>
   101e4:	00010713          	mv	a4,sp
   101e8:	00000393          	li	t2,0
   101ec:	40771c63          	bne	a4,t2,10604 <fail>

00000000000101f0 <test_4>:
   101f0:	00400193          	li	gp,4
   101f4:	00002097          	auipc	ra,0x2
   101f8:	e0c08093          	add	ra,ra,-500 # 12000 <begin_signature>
   101fc:	fffff137          	lui	sp,0xfffff
   10200:	fa01011b          	addw	sp,sp,-96 # ffffffffffffefa0 <_end+0xfffffffffffecf90>
   10204:	00000797          	auipc	a5,0x0
   10208:	01478793          	add	a5,a5,20 # 10218 <test_4+0x28>
   1020c:	00208123          	sb	sp,2(ra)
   10210:	00209703          	lh	a4,2(ra)
   10214:	0080006f          	j	1021c <test_4+0x2c>
   10218:	00010713          	mv	a4,sp
   1021c:	fffff3b7          	lui	t2,0xfffff
   10220:	fa03839b          	addw	t2,t2,-96 # ffffffffffffefa0 <_end+0xfffffffffffecf90>
   10224:	3e771063          	bne	a4,t2,10604 <fail>

0000000000010228 <test_5>:
   10228:	00500193          	li	gp,5
   1022c:	00002097          	auipc	ra,0x2
   10230:	dd408093          	add	ra,ra,-556 # 12000 <begin_signature>
   10234:	00a00113          	li	sp,10
   10238:	00000797          	auipc	a5,0x0
   1023c:	01478793          	add	a5,a5,20 # 1024c <test_5+0x24>
   10240:	002081a3          	sb	sp,3(ra)
   10244:	00308703          	lb	a4,3(ra)
   10248:	0080006f          	j	10250 <test_5+0x28>
   1024c:	00010713          	mv	a4,sp
   10250:	00a00393          	li	t2,10
   10254:	3a771863          	bne	a4,t2,10604 <fail>

0000000000010258 <test_6>:
   10258:	00600193          	li	gp,6
   1025c:	00002097          	auipc	ra,0x2
   10260:	dab08093          	add	ra,ra,-597 # 12007 <tdat8>
   10264:	faa00113          	li	sp,-86
   10268:	00000797          	auipc	a5,0x0
   1026c:	01478793          	add	a5,a5,20 # 1027c <test_6+0x24>
   10270:	fe208ea3          	sb	sp,-3(ra)
   10274:	ffd08703          	lb	a4,-3(ra)
   10278:	0080006f          	j	10280 <test_6+0x28>
   1027c:	00010713          	mv	a4,sp
   10280:	faa00393          	li	t2,-86
   10284:	38771063          	bne	a4,t2,10604 <fail>

0000000000010288 <test_7>:
   10288:	00700193          	li	gp,7
   1028c:	00002097          	auipc	ra,0x2
   10290:	d7b08093          	add	ra,ra,-645 # 12007 <tdat8>
   10294:	00000113          	li	sp,0
   10298:	00000797          	auipc	a5,0x0
   1029c:	01478793          	add	a5,a5,20 # 102ac <test_7+0x24>
   102a0:	fe208f23          	sb	sp,-2(ra)
   102a4:	ffe08703          	lb	a4,-2(ra)
   102a8:	0080006f          	j	102b0 <test_7+0x28>
   102ac:	00010713          	mv	a4,sp
   102b0:	00000393          	li	t2,0
   102b4:	34771863          	bne	a4,t2,10604 <fail>

00000000000102b8 <test_8>:
   102b8:	00800193          	li	gp,8
   102bc:	00002097          	auipc	ra,0x2
   102c0:	d4b08093          	add	ra,ra,-693 # 12007 <tdat8>
   102c4:	fa000113          	li	sp,-96
   102c8:	00000797          	auipc	a5,0x0
   102cc:	01478793          	add	a5,a5,20 # 102dc <test_8+0x24>
   102d0:	fe208fa3          	sb	sp,-1(ra)
   102d4:	fff08703          	lb	a4,-1(ra)
   102d8:	0080006f          	j	102e0 <test_8+0x28>
   102dc:	00010713          	mv	a4,sp
   102e0:	fa000393          	li	t2,-96
   102e4:	32771063          	bne	a4,t2,10604 <fail>

00000000000102e8 <test_9>:
   102e8:	00900193          	li	gp,9
   102ec:	00002097          	auipc	ra,0x2
   102f0:	d1b08093          	add	ra,ra,-741 # 12007 <tdat8>
   102f4:	00a00113          	li	sp,10
   102f8:	00000797          	auipc	a5,0x0
   102fc:	01478793          	add	a5,a5,20 # 1030c <test_9+0x24>
   10300:	00208023          	sb	sp,0(ra)
   10304:	00008703          	lb	a4,0(ra)
   10308:	0080006f          	j	10310 <test_9+0x28>
   1030c:	00010713          	mv	a4,sp
   10310:	00a00393          	li	t2,10
   10314:	2e771863          	bne	a4,t2,10604 <fail>

0000000000010318 <test_10>:
   10318:	00a00193          	li	gp,10
   1031c:	00002097          	auipc	ra,0x2
   10320:	cec08093          	add	ra,ra,-788 # 12008 <tdat9>
   10324:	12345137          	lui	sp,0x12345
   10328:	6781011b          	addw	sp,sp,1656 # 12345678 <_end+0x12333668>
   1032c:	fe008213          	add	tp,ra,-32
   10330:	02220023          	sb	sp,32(tp) # 20 <_start-0xffe0>
   10334:	00008283          	lb	t0,0(ra)
   10338:	07800393          	li	t2,120
   1033c:	2c729463          	bne	t0,t2,10604 <fail>

0000000000010340 <test_11>:
   10340:	00b00193          	li	gp,11
   10344:	00002097          	auipc	ra,0x2
   10348:	cc408093          	add	ra,ra,-828 # 12008 <tdat9>
   1034c:	00003137          	lui	sp,0x3
   10350:	0981011b          	addw	sp,sp,152 # 3098 <_start-0xcf68>
   10354:	ffa08093          	add	ra,ra,-6
   10358:	002083a3          	sb	sp,7(ra)
   1035c:	00002217          	auipc	tp,0x2
   10360:	cad20213          	add	tp,tp,-851 # 12009 <tdat10>
   10364:	00020283          	lb	t0,0(tp) # 0 <_start-0x10000>
   10368:	f9800393          	li	t2,-104
   1036c:	28729c63          	bne	t0,t2,10604 <fail>

0000000000010370 <test_12>:
   10370:	00c00193          	li	gp,12
   10374:	00000213          	li	tp,0
   10378:	fdd00093          	li	ra,-35
   1037c:	00002117          	auipc	sp,0x2
   10380:	c8410113          	add	sp,sp,-892 # 12000 <begin_signature>
   10384:	00110023          	sb	ra,0(sp)
   10388:	00010703          	lb	a4,0(sp)
   1038c:	fdd00393          	li	t2,-35
   10390:	26771a63          	bne	a4,t2,10604 <fail>
   10394:	00120213          	add	tp,tp,1 # 1 <_start-0xffff>
   10398:	00200293          	li	t0,2
   1039c:	fc521ee3          	bne	tp,t0,10378 <test_12+0x8>

00000000000103a0 <test_13>:
   103a0:	00d00193          	li	gp,13
   103a4:	00000213          	li	tp,0
   103a8:	fcd00093          	li	ra,-51
   103ac:	00002117          	auipc	sp,0x2
   103b0:	c5410113          	add	sp,sp,-940 # 12000 <begin_signature>
   103b4:	00000013          	nop
   103b8:	001100a3          	sb	ra,1(sp)
   103bc:	00110703          	lb	a4,1(sp)
   103c0:	fcd00393          	li	t2,-51
   103c4:	24771063          	bne	a4,t2,10604 <fail>
   103c8:	00120213          	add	tp,tp,1 # 1 <_start-0xffff>
   103cc:	00200293          	li	t0,2
   103d0:	fc521ce3          	bne	tp,t0,103a8 <test_13+0x8>

00000000000103d4 <test_14>:
   103d4:	00e00193          	li	gp,14
   103d8:	00000213          	li	tp,0
   103dc:	fcc00093          	li	ra,-52
   103e0:	00002117          	auipc	sp,0x2
   103e4:	c2010113          	add	sp,sp,-992 # 12000 <begin_signature>
   103e8:	00000013          	nop
   103ec:	00000013          	nop
   103f0:	00110123          	sb	ra,2(sp)
   103f4:	00210703          	lb	a4,2(sp)
   103f8:	fcc00393          	li	t2,-52
   103fc:	20771463          	bne	a4,t2,10604 <fail>
   10400:	00120213          	add	tp,tp,1 # 1 <_start-0xffff>
   10404:	00200293          	li	t0,2
   10408:	fc521ae3          	bne	tp,t0,103dc <test_14+0x8>

000000000001040c <test_15>:
   1040c:	00f00193          	li	gp,15
   10410:	00000213          	li	tp,0
   10414:	fbc00093          	li	ra,-68
   10418:	00000013          	nop
   1041c:	00002117          	auipc	sp,0x2
   10420:	be410113          	add	sp,sp,-1052 # 12000 <begin_signature>
   10424:	001101a3          	sb	ra,3(sp)
   10428:	00310703          	lb	a4,3(sp)
   1042c:	fbc00393          	li	t2,-68
   10430:	1c771a63          	bne	a4,t2,10604 <fail>
   10434:	00120213          	add	tp,tp,1 # 1 <_start-0xffff>
   10438:	00200293          	li	t0,2
   1043c:	fc521ce3          	bne	tp,t0,10414 <test_15+0x8>

0000000000010440 <test_16>:
   10440:	01000193          	li	gp,16
   10444:	00000213          	li	tp,0
   10448:	fbb00093          	li	ra,-69
   1044c:	00000013          	nop
   10450:	00002117          	auipc	sp,0x2
   10454:	bb010113          	add	sp,sp,-1104 # 12000 <begin_signature>
   10458:	00000013          	nop
   1045c:	00110223          	sb	ra,4(sp)
   10460:	00410703          	lb	a4,4(sp)
   10464:	fbb00393          	li	t2,-69
   10468:	18771e63          	bne	a4,t2,10604 <fail>
   1046c:	00120213          	add	tp,tp,1 # 1 <_start-0xffff>
   10470:	00200293          	li	t0,2
   10474:	fc521ae3          	bne	tp,t0,10448 <test_16+0x8>

0000000000010478 <test_17>:
   10478:	01100193          	li	gp,17
   1047c:	00000213          	li	tp,0
   10480:	fab00093          	li	ra,-85
   10484:	00000013          	nop
   10488:	00000013          	nop
   1048c:	00002117          	auipc	sp,0x2
   10490:	b7410113          	add	sp,sp,-1164 # 12000 <begin_signature>
   10494:	001102a3          	sb	ra,5(sp)
   10498:	00510703          	lb	a4,5(sp)
   1049c:	fab00393          	li	t2,-85
   104a0:	16771263          	bne	a4,t2,10604 <fail>
   104a4:	00120213          	add	tp,tp,1 # 1 <_start-0xffff>
   104a8:	00200293          	li	t0,2
   104ac:	fc521ae3          	bne	tp,t0,10480 <test_17+0x8>

00000000000104b0 <test_18>:
   104b0:	01200193          	li	gp,18
   104b4:	00000213          	li	tp,0
   104b8:	00002117          	auipc	sp,0x2
   104bc:	b4810113          	add	sp,sp,-1208 # 12000 <begin_signature>
   104c0:	03300093          	li	ra,51
   104c4:	00110023          	sb	ra,0(sp)
   104c8:	00010703          	lb	a4,0(sp)
   104cc:	03300393          	li	t2,51
   104d0:	12771a63          	bne	a4,t2,10604 <fail>
   104d4:	00120213          	add	tp,tp,1 # 1 <_start-0xffff>
   104d8:	00200293          	li	t0,2
   104dc:	fc521ee3          	bne	tp,t0,104b8 <test_18+0x8>

00000000000104e0 <test_19>:
   104e0:	01300193          	li	gp,19
   104e4:	00000213          	li	tp,0
   104e8:	00002117          	auipc	sp,0x2
   104ec:	b1810113          	add	sp,sp,-1256 # 12000 <begin_signature>
   104f0:	02300093          	li	ra,35
   104f4:	00000013          	nop
   104f8:	001100a3          	sb	ra,1(sp)
   104fc:	00110703          	lb	a4,1(sp)
   10500:	02300393          	li	t2,35
   10504:	10771063          	bne	a4,t2,10604 <fail>
   10508:	00120213          	add	tp,tp,1 # 1 <_start-0xffff>
   1050c:	00200293          	li	t0,2
   10510:	fc521ce3          	bne	tp,t0,104e8 <test_19+0x8>

0000000000010514 <test_20>:
   10514:	01400193          	li	gp,20
   10518:	00000213          	li	tp,0
   1051c:	00002117          	auipc	sp,0x2
   10520:	ae410113          	add	sp,sp,-1308 # 12000 <begin_signature>
   10524:	02200093          	li	ra,34
   10528:	00000013          	nop
   1052c:	00000013          	nop
   10530:	00110123          	sb	ra,2(sp)
   10534:	00210703          	lb	a4,2(sp)
   10538:	02200393          	li	t2,34
   1053c:	0c771463          	bne	a4,t2,10604 <fail>
   10540:	00120213          	add	tp,tp,1 # 1 <_start-0xffff>
   10544:	00200293          	li	t0,2
   10548:	fc521ae3          	bne	tp,t0,1051c <test_20+0x8>

000000000001054c <test_21>:
   1054c:	01500193          	li	gp,21
   10550:	00000213          	li	tp,0
   10554:	00002117          	auipc	sp,0x2
   10558:	aac10113          	add	sp,sp,-1364 # 12000 <begin_signature>
   1055c:	00000013          	nop
   10560:	01200093          	li	ra,18
   10564:	001101a3          	sb	ra,3(sp)
   10568:	00310703          	lb	a4,3(sp)
   1056c:	01200393          	li	t2,18
   10570:	08771a63          	bne	a4,t2,10604 <fail>
   10574:	00120213          	add	tp,tp,1 # 1 <_start-0xffff>
   10578:	00200293          	li	t0,2
   1057c:	fc521ce3          	bne	tp,t0,10554 <test_21+0x8>

0000000000010580 <test_22>:
   10580:	01600193          	li	gp,22
   10584:	00000213          	li	tp,0
   10588:	00002117          	auipc	sp,0x2
   1058c:	a7810113          	add	sp,sp,-1416 # 12000 <begin_signature>
   10590:	00000013          	nop
   10594:	01100093          	li	ra,17
   10598:	00000013          	nop
   1059c:	00110223          	sb	ra,4(sp)
   105a0:	00410703          	lb	a4,4(sp)
   105a4:	01100393          	li	t2,17
   105a8:	04771e63          	bne	a4,t2,10604 <fail>
   105ac:	00120213          	add	tp,tp,1 # 1 <_start-0xffff>
   105b0:	00200293          	li	t0,2
   105b4:	fc521ae3          	bne	tp,t0,10588 <test_22+0x8>

00000000000105b8 <test_23>:
   105b8:	01700193          	li	gp,23
   105bc:	00000213          	li	tp,0
   105c0:	00002117          	auipc	sp,0x2
   105c4:	a4010113          	add	sp,sp,-1472 # 12000 <begin_signature>
   105c8:	00000013          	nop
   105cc:	00000013          	nop
   105d0:	00100093          	li	ra,1
   105d4:	001102a3          	sb	ra,5(sp)
   105d8:	00510703          	lb	a4,5(sp)
   105dc:	00100393          	li	t2,1
   105e0:	02771263          	bne	a4,t2,10604 <fail>
   105e4:	00120213          	add	tp,tp,1 # 1 <_start-0xffff>
   105e8:	00200293          	li	t0,2
   105ec:	fc521ae3          	bne	tp,t0,105c0 <test_23+0x8>
   105f0:	0ef00513          	li	a0,239
   105f4:	00002597          	auipc	a1,0x2
   105f8:	a0c58593          	add	a1,a1,-1524 # 12000 <begin_signature>
   105fc:	00a581a3          	sb	a0,3(a1)
   10600:	02301063          	bne	zero,gp,10620 <pass>

0000000000010604 <fail>:
   10604:	0ff0000f          	fence
   10608:	00018063          	beqz	gp,10608 <fail+0x4>
   1060c:	00119193          	sll	gp,gp,0x1
   10610:	0011e193          	or	gp,gp,1
   10614:	05d00893          	li	a7,93
   10618:	00018513          	mv	a0,gp
   1061c:	00000073          	ecall

0000000000010620 <pass>:
   10620:	0ff0000f          	fence
   10624:	00100193          	li	gp,1
   10628:	05d00893          	li	a7,93
   1062c:	00000513          	li	a0,0
   10630:	00000073          	ecall
   10634:	c0001073          	unimp
   10638:	0000                	.2byte	0x0
   1063a:	0000                	.2byte	0x0
